target datalayout = "e-m:e-p270:32:32-p271:32:32-p272:64:64-i64:64-i128:128-f80:128-n8:16:32:64-S128"
target triple = "x86_64-pc-linux-gnu"

@.str.41 = private unnamed_addr constant [8 x i8] c"DFilter\00", align 1
@.str.42 = private unnamed_addr constant [11 x i8] c"%s is NULL\00", align 1
@.str.43 = private unnamed_addr constant [8 x i8] c"%s = %s\00", align 1

; Function Attrs: null_pointer_is_valid sspstrong uwtable
define hidden void @log_node_full(i32 noundef %0, ptr noundef %1, i32 noundef %2, ptr noundef %3, ptr noundef %4, ptr noundef %5) #0 {
  %7 = alloca i32, align 4
  %8 = alloca ptr, align 8
  %9 = alloca i32, align 4
  %10 = alloca ptr, align 8
  %11 = alloca ptr, align 8
  %12 = alloca ptr, align 8
  %13 = alloca ptr, align 8
  store i32 %0, ptr %7, align 4
  store ptr %1, ptr %8, align 8
  store i32 %2, ptr %9, align 4
  store ptr %3, ptr %10, align 8
  store ptr %4, ptr %11, align 8
  store ptr %5, ptr %12, align 8
  %14 = load i32, ptr %7, align 4
  %15 = call zeroext i1 @ws_log_msg_is_active(ptr noundef @.str.41, i32 noundef %14)
  br i1 %15, label %17, label %16

16:                                               ; preds = %6
  br label %38

17:                                               ; preds = %6
  %18 = load ptr, ptr %11, align 8
  %19 = icmp eq ptr %18, null
  br i1 %19, label %20, label %27

20:                                               ; preds = %17
  %21 = load i32, ptr %7, align 4
  %22 = load ptr, ptr %8, align 8
  %23 = load i32, ptr %9, align 4
  %24 = sext i32 %23 to i64
  %25 = load ptr, ptr %10, align 8
  %26 = load ptr, ptr %12, align 8
  call void (ptr, i32, ptr, i64, ptr, ptr, ...) @ws_log_write_always_full(ptr noundef @.str.41, i32 noundef %21, ptr noundef %22, i64 noundef %24, ptr noundef %25, ptr noundef @.str.42, ptr noundef %26)
  br label %38

27:                                               ; preds = %17
  call void @llvm.lifetime.start.p0(i64 8, ptr %13) #9
  %28 = load ptr, ptr %11, align 8
  %29 = call ptr @sprint_node(ptr noundef %28)
  store ptr %29, ptr %13, align 8
  %30 = load i32, ptr %7, align 4
  %31 = load ptr, ptr %8, align 8
  %32 = load i32, ptr %9, align 4
  %33 = sext i32 %32 to i64
  %34 = load ptr, ptr %10, align 8
  %35 = load ptr, ptr %12, align 8
  %36 = load ptr, ptr %13, align 8
  call void (ptr, i32, ptr, i64, ptr, ptr, ...) @ws_log_write_always_full(ptr noundef @.str.41, i32 noundef %30, ptr noundef %31, i64 noundef %33, ptr noundef %34, ptr noundef @.str.43, ptr noundef %35, ptr noundef %36)
  %37 = load ptr, ptr %13, align 8
  call void @g_free(ptr noundef %37)
  call void @llvm.lifetime.end.p0(i64 8, ptr %13) #9
  br label %38

38:                                               ; preds = %27, %20, %16
  ret void
}