; Function Attrs: null_pointer_is_valid sspstrong uwtable
define hidden void @log_node_full(i32 noundef %0, ptr noundef %1, i32 noundef %2, ptr noundef %3, ptr noundef captures(address_is_null) %4, ptr noundef %5) local_unnamed_addr #0 {
  %7 = tail call zeroext i1 @ws_log_msg_is_active(ptr noundef nonnull @.str.41, i32 noundef %0)
  br i1 %7, label %8, label %15

8:                                                ; preds = %6
  %9 = icmp eq ptr %4, null
  br i1 %9, label %10, label %12

10:                                               ; preds = %8
  %11 = sext i32 %2 to i64
  tail call void (ptr, i32, ptr, i64, ptr, ptr, ...) @ws_log_write_always_full(ptr noundef nonnull @.str.41, i32 noundef %0, ptr noundef %1, i64 noundef %11, ptr noundef %3, ptr noundef nonnull @.str.42, ptr noundef %5)
  br label %15

12:                                               ; preds = %8
  %13 = tail call fastcc ptr @sprint_node(ptr noundef %4)
  %14 = sext i32 %2 to i64
  tail call void (ptr, i32, ptr, i64, ptr, ptr, ...) @ws_log_write_always_full(ptr noundef nonnull @.str.41, i32 noundef %0, ptr noundef %1, i64 noundef %14, ptr noundef %3, ptr noundef nonnull @.str.43, ptr noundef %5, ptr noundef %13)
  tail call void @g_free(ptr noundef %13)
  br label %15

15:                                               ; preds = %6, %12, %10
  ret void
}